target datalayout = "e-m:e-p270:32:32-p271:32:32-p272:64:64-i64:64-i128:128-f80:128-n8:16:32:64-S128"
target triple = "x86_64-unknown-linux-gnu"

; Function Attrs: nounwind uwtable
define dso_local ptr @unquoteCString(ptr noundef %str) #0 {
entry:
  %str.addr = alloca ptr, align 8
  %count = alloca i32, align 4
  %unquoted = alloca ptr, align 8
  %res = alloca ptr, align 8
  store ptr %str, ptr %str.addr, align 8
  %0 = load ptr, ptr %str.addr, align 8
  %call = call ptr @hi_sdssplitargs(ptr noundef %0, ptr noundef %count)
  store ptr %call, ptr %unquoted, align 8
  store ptr null, ptr %res, align 8
  %1 = load ptr, ptr %unquoted, align 8
  %tobool = icmp ne ptr %1, null
  br i1 %tobool, label %land.lhs.true, label %if.end

land.lhs.true:                                    ; preds = %entry
  %2 = load i32, ptr %count, align 4
  %cmp = icmp eq i32 %2, 1
  br i1 %cmp, label %if.then, label %if.end

if.then:                                          ; preds = %land.lhs.true
  %3 = load ptr, ptr %unquoted, align 8
  %arrayidx = getelementptr inbounds ptr, ptr %3, i64 0
  %4 = load ptr, ptr %arrayidx, align 8
  store ptr %4, ptr %res, align 8
  %5 = load ptr, ptr %unquoted, align 8
  %arrayidx1 = getelementptr inbounds ptr, ptr %5, i64 0
  store ptr null, ptr %arrayidx1, align 8
  br label %if.end

if.end:                                           ; preds = %if.then, %land.lhs.true, %entry
  %6 = load ptr, ptr %unquoted, align 8
  %tobool2 = icmp ne ptr %6, null
  br i1 %tobool2, label %if.then3, label %if.end4

if.then3:                                         ; preds = %if.end
  %7 = load ptr, ptr %unquoted, align 8
  %8 = load i32, ptr %count, align 4
  call void @hi_sdsfreesplitres(ptr noundef %7, i32 noundef %8)
  br label %if.end4

if.end4:                                          ; preds = %if.then3, %if.end
  %9 = load ptr, ptr %res, align 8
  ret ptr %9
}