; Function Attrs: nounwind uwtable
define dso_local ptr @unquoteCString(ptr noundef %str) local_unnamed_addr #1 {
entry:
  %count = alloca i32, align 4
  %call = call ptr @hi_sdssplitargs(ptr noundef %str, ptr noundef nonnull %count) #11
  %tobool = icmp ne ptr %call, null
  %0 = load i32, ptr %count, align 4
  %cmp = icmp eq i32 %0, 1
  %or.cond = select i1 %tobool, i1 %cmp, i1 false
  br i1 %or.cond, label %if.end.thread, label %if.end

if.end.thread:                                    ; preds = %entry
  %1 = load ptr, ptr %call, align 8
  store ptr null, ptr %call, align 8
  br label %if.then3

if.end:                                           ; preds = %entry
  br i1 %tobool, label %if.then3, label %if.end4

if.then3:                                         ; preds = %if.end.thread, %if.end
  %res.07 = phi ptr [ %1, %if.end.thread ], [ null, %if.end ]
  call void @hi_sdsfreesplitres(ptr noundef nonnull %call, i32 noundef %0) #11
  br label %if.end4

if.end4:                                          ; preds = %if.then3, %if.end
  %res.06 = phi ptr [ %res.07, %if.then3 ], [ null, %if.end ]
  ret ptr %res.06
}